TN:
SF:/code/src/core/MultiRangeExpression.cpp
FN:102,118,_ZNK3ert13diametercodec4core20MultiRangeExpression18getExpandedLiteralB5cxx11Ev
FN:120,160,_ZN3ert13diametercodec4core20MultiRangeExpression15simplifyLiteralEv
FN:58,100,_ZN3ert13diametercodec4core20MultiRangeExpression7refreshEv
FNDA:1,_ZNK3ert13diametercodec4core20MultiRangeExpression18getExpandedLiteralB5cxx11Ev
FNDA:17,_ZN3ert13diametercodec4core20MultiRangeExpression15simplifyLiteralEv
FNDA:6028,_ZN3ert13diametercodec4core20MultiRangeExpression7refreshEv
FNF:3
FNH:3
DA:58,6028
DA:59,6028
DA:61,613
DA:63,613
DA:65,613
DA:66,613
DA:69,2452
DA:70,1226
DA:71,613
DA:73,1291
DA:74,678
DA:77,2034
DA:78,1356
DA:79,678
DA:81,678
DA:83,678
DA:84,678
DA:85,678
DA:86,678
DA:88,678
DA:89,605
DA:93,2918
DA:94,2240
DA:96,2240
DA:99,678
DA:100,613
DA:102,1
DA:103,1
DA:104,1
DA:105,1
DA:106,1
DA:108,8
DA:109,7
DA:110,7
DA:113,1
DA:115,1
DA:117,1
DA:118,0
DA:120,17
DA:121,17
DA:123,17
DA:124,17
DA:125,17
DA:126,17
DA:127,17
DA:129,17
DA:130,17
DA:132,108
DA:133,91
DA:135,91
DA:137,91
DA:138,2
DA:139,2
DA:140,1
DA:141,1
DA:143,2
DA:144,2
DA:147,91
DA:149,91
DA:152,17
DA:154,17
DA:155,17
DA:156,17
DA:159,17
LF:64
LH:63
end_of_record
TN:
SF:/code/src/core/functions.cpp
FN:52,54,_ZN3ert13diametercodec4core9functions17avpIdAsPairStringB5cxx11ERKSt4pairIiiE
FN:56,58,_ZN3ert13diametercodec4core9functions21commandIdAsPairStringB5cxx11ERKSt4pairIjbE
FNDA:1,_ZN3ert13diametercodec4core9functions17avpIdAsPairStringB5cxx11ERKSt4pairIiiE
FNDA:1,_ZN3ert13diametercodec4core9functions21commandIdAsPairStringB5cxx11ERKSt4pairIjbE
FNF:2
FNH:2
DA:52,1
DA:53,1
DA:56,1
DA:57,1
LF:4
LH:4
end_of_record
TN:
SF:/code/src/stack/Avp.cpp
FN:113,154,_ZNK3ert13diametercodec5stack3Avp6asJsonB5cxx11Ev
FN:56,66,_ZNK3ert13diametercodec5stack3Avp7isChildERKSt4pairIiiE
FN:68,70,_ZNK3ert13diametercodec5stack3Avp9getFormatEv
FN:73,88,_ZN3ert13diametercodec5stack3Avp8addLabelERKNSt7__cxx1112basic_stringIcSt11char_traitsIcESaIcEEESA_
FN:90,111,_ZN3ert13diametercodec5stack3Avp10addAvpRuleERKNS1_7AvpRuleE
FNDA:1,_ZNK3ert13diametercodec5stack3Avp6asJsonB5cxx11Ev
FNDA:10053,_ZNK3ert13diametercodec5stack3Avp7isChildERKSt4pairIiiE
FNDA:69308,_ZNK3ert13diametercodec5stack3Avp9getFormatEv
FNDA:3625,_ZN3ert13diametercodec5stack3Avp8addLabelERKNSt7__cxx1112basic_stringIcSt11char_traitsIcESaIcEEESA_
FNDA:1653,_ZN3ert13diametercodec5stack3Avp10addAvpRuleERKNS1_7AvpRuleE
FNF:5
FNH:5
DA:56,10053
DA:57,10053
DA:59,10053
DA:61,43231
DA:62,33480
DA:63,33480
DA:65,9751
DA:68,69308
DA:69,69308
DA:73,3625
DA:74,3625
DA:76,3625
DA:77,0
DA:79,3625
DA:81,3625
DA:88,3625
DA:90,1653
DA:91,1653
DA:93,1653
DA:94,1652
DA:95,125
DA:96,0
DA:97,0
DA:98,0
DA:99,0
DA:100,1527
DA:103,1652
DA:104,1
DA:105,1
DA:106,1
DA:108,1651
DA:110,1
DA:111,1651
DA:113,1
DA:114,1
DA:116,1
DA:117,1
DA:118,1
DA:119,1
DA:120,1
DA:122,1
DA:124,1
DA:127,0
DA:128,0
DA:129,0
DA:131,0
DA:133,0
DA:134,1
DA:136,1
DA:137,1
DA:138,1
DA:139,1
DA:141,1
DA:143,1
DA:144,6
DA:145,5
DA:146,5
DA:147,5
DA:148,5
DA:149,1
DA:150,1
DA:153,1
DA:154,0
LF:63
LH:52
end_of_record
TN:
SF:/code/src/stack/AvpRule.cpp
FN:110,120,_ZNK3ert13diametercodec5stack7AvpRule6asJsonB5cxx11Ev
FN:56,63,_ZN3ert13diametercodec5stack7AvpRule7setQualERKNSt7__cxx1112basic_stringIcSt11char_traitsIcESaIcEEE
FN:65,68,_ZNK3ert13diametercodec5stack7AvpRule10getAvpNameB5cxx11Ev
FN:70,74,_ZNK3ert13diametercodec5stack7AvpRule5isAnyEv
FN:76,93,_ZNK3ert13diametercodec5stack7AvpRule10getQualMinEv
FN:95,108,_ZNK3ert13diametercodec5stack7AvpRule10getQualMaxEv
FNDA:1,_ZNK3ert13diametercodec5stack7AvpRule6asJsonB5cxx11Ev
FNDA:5737,_ZN3ert13diametercodec5stack7AvpRule7setQualERKNSt7__cxx1112basic_stringIcSt11char_traitsIcESaIcEEE
FNDA:3,_ZNK3ert13diametercodec5stack7AvpRule10getAvpNameB5cxx11Ev
FNDA:1,_ZNK3ert13diametercodec5stack7AvpRule5isAnyEv
FNDA:1,_ZNK3ert13diametercodec5stack7AvpRule10getQualMinEv
FNDA:1,_ZNK3ert13diametercodec5stack7AvpRule10getQualMaxEv
FNF:6
FNH:6
DA:56,5737
DA:57,5737
DA:59,5737
DA:60,0
DA:62,5737
DA:63,5737
DA:65,3
DA:66,3
DA:67,3
DA:70,1
DA:71,1
DA:72,1
DA:73,1
DA:76,1
DA:77,1
DA:78,0
DA:80,0
DA:84,1
DA:85,1
DA:88,1
DA:91,1
DA:92,1
DA:93,1
DA:95,1
DA:96,1
DA:99,1
DA:100,1
DA:103,1
DA:106,0
DA:107,0
DA:108,0
DA:110,1
DA:111,1
DA:113,1
DA:114,1
DA:115,1
DA:116,1
DA:119,1
DA:120,0
LF:39
LH:32
end_of_record
TN:
SF:/code/src/stack/Command.cpp
FN:53,69,_ZN3ert13diametercodec5stack7Command10addAvpRuleERKNS1_7AvpRuleE
FN:71,77,_ZNK3ert13diametercodec5stack7Command7isChildERKSt4pairIiiE
FN:79,97,_ZNK3ert13diametercodec5stack7Command6asJsonB5cxx11Ev
FNDA:4075,_ZN3ert13diametercodec5stack7Command10addAvpRuleERKNS1_7AvpRuleE
FNDA:4075,_ZNK3ert13diametercodec5stack7Command7isChildERKSt4pairIiiE
FNDA:0,_ZNK3ert13diametercodec5stack7Command6asJsonB5cxx11Ev
FNF:3
FNH:2
DA:53,4075
DA:54,4075
DA:55,200
DA:56,0
DA:57,0
DA:58,0
DA:59,0
DA:60,3875
DA:63,4075
DA:64,0
DA:65,0
DA:66,0
DA:68,4075
DA:69,4075
DA:71,4075
DA:72,30500
DA:73,26425
DA:74,26425
DA:76,4075
DA:79,0
DA:80,0
DA:82,0
DA:83,0
DA:84,0
DA:85,0
DA:86,0
DA:89,0
DA:91,0
DA:92,0
DA:94,0
DA:96,0
DA:97,0
LF:32
LH:12
end_of_record
TN:
SF:/code/src/stack/Dictionary.cpp
FN:128,146,_ZN3ert13diametercodec5stack10Dictionary9addFormatERKNS1_6FormatEb
FN:148,152,_ZN3ert13diametercodec5stack10Dictionary9addVendorERKNS1_6VendorE
FN:154,158,_ZN3ert13diametercodec5stack10Dictionary6addAvpERKNS1_3AvpE
FN:160,164,_ZN3ert13diametercodec5stack10Dictionary10addCommandERKNS1_7CommandE
FN:166,172,_ZNK3ert13diametercodec5stack10Dictionary9getFormatERKNSt7__cxx1112basic_stringIcSt11char_traitsIcESaIcEEE
FN:174,180,_ZNK3ert13diametercodec5stack10Dictionary9getVendorEi
FN:182,188,_ZNK3ert13diametercodec5stack10Dictionary9getVendorERKNSt7__cxx1112basic_stringIcSt11char_traitsIcESaIcEEE
FN:190,196,_ZNK3ert13diametercodec5stack10Dictionary6getAvpERKSt4pairIiiE
FN:198,204,_ZNK3ert13diametercodec5stack10Dictionary6getAvpERKNSt7__cxx1112basic_stringIcSt11char_traitsIcESaIcEEE
FN:206,212,_ZNK3ert13diametercodec5stack10Dictionary10getCommandERKSt4pairIjbE
FN:214,220,_ZNK3ert13diametercodec5stack10Dictionary10getCommandERKNSt7__cxx1112basic_stringIcSt11char_traitsIcESaIcEEE
FN:222,250,_ZNK3ert13diametercodec5stack10Dictionary6asJsonB5cxx11Ev
FN:252,267,_ZN3ert13diametercodec5stack10Dictionary14extractFormatsERKN8nlohmann10basic_jsonISt3mapSt6vectorNSt7__cxx1112basic_stringIcSt11char_traitsIcESaIcEEEblmdSaNS3_14adl_serializerES6_IhSaIhEEEE
FN:269,284,_ZN3ert13diametercodec5stack10Dictionary14extractVendorsERKN8nlohmann10basic_jsonISt3mapSt6vectorNSt7__cxx1112basic_stringIcSt11char_traitsIcESaIcEEEblmdSaNS3_14adl_serializerES6_IhSaIhEEEE
FN:286,470,_ZN3ert13diametercodec5stack10Dictionary11extractAvpsERKN8nlohmann10basic_jsonISt3mapSt6vectorNSt7__cxx1112basic_stringIcSt11char_traitsIcESaIcEEEblmdSaNS3_14adl_serializerES6_IhSaIhEEEE
FN:472,514,_ZN3ert13diametercodec5stack10Dictionary15extractCommandsERKN8nlohmann10basic_jsonISt3mapSt6vectorNSt7__cxx1112basic_stringIcSt11char_traitsIcESaIcEEEblmdSaNS3_14adl_serializerES6_IhSaIhEEEE
FN:516,542,_ZN3ert13diametercodec5stack10Dictionary4loadERKN8nlohmann10basic_jsonISt3mapSt6vectorNSt7__cxx1112basic_stringIcSt11char_traitsIcESaIcEEEblmdSaNS3_14adl_serializerES6_IhSaIhEEEE
FN:54,126,_ZN3ert13diametercodec5stack10Dictionary10initializeEv
FNDA:425,_ZN3ert13diametercodec5stack10Dictionary9addFormatERKNS1_6FormatEb
FNDA:150,_ZN3ert13diametercodec5stack10Dictionary9addVendorERKNS1_6VendorE
FNDA:2700,_ZN3ert13diametercodec5stack10Dictionary6addAvpERKNS1_3AvpE
FNDA:350,_ZN3ert13diametercodec5stack10Dictionary10addCommandERKNS1_7CommandE
FNDA:72159,_ZNK3ert13diametercodec5stack10Dictionary9getFormatERKNSt7__cxx1112basic_stringIcSt11char_traitsIcESaIcEEE
FNDA:150,_ZNK3ert13diametercodec5stack10Dictionary9getVendorEi
FNDA:0,_ZNK3ert13diametercodec5stack10Dictionary9getVendorERKNSt7__cxx1112basic_stringIcSt11char_traitsIcESaIcEEE
FNDA:2705,_ZNK3ert13diametercodec5stack10Dictionary6getAvpERKSt4pairIiiE
FNDA:5726,_ZNK3ert13diametercodec5stack10Dictionary6getAvpERKNSt7__cxx1112basic_stringIcSt11char_traitsIcESaIcEEE
FNDA:350,_ZNK3ert13diametercodec5stack10Dictionary10getCommandERKSt4pairIjbE
FNDA:0,_ZNK3ert13diametercodec5stack10Dictionary10getCommandERKNSt7__cxx1112basic_stringIcSt11char_traitsIcESaIcEEE
FNDA:0,_ZNK3ert13diametercodec5stack10Dictionary6asJsonB5cxx11Ev
FNDA:0,_ZN3ert13diametercodec5stack10Dictionary14extractFormatsERKN8nlohmann10basic_jsonISt3mapSt6vectorNSt7__cxx1112basic_stringIcSt11char_traitsIcESaIcEEEblmdSaNS3_14adl_serializerES6_IhSaIhEEEE
FNDA:25,_ZN3ert13diametercodec5stack10Dictionary14extractVendorsERKN8nlohmann10basic_jsonISt3mapSt6vectorNSt7__cxx1112basic_stringIcSt11char_traitsIcESaIcEEEblmdSaNS3_14adl_serializerES6_IhSaIhEEEE
FNDA:25,_ZN3ert13diametercodec5stack10Dictionary11extractAvpsERKN8nlohmann10basic_jsonISt3mapSt6vectorNSt7__cxx1112basic_stringIcSt11char_traitsIcESaIcEEEblmdSaNS3_14adl_serializerES6_IhSaIhEEEE
FNDA:25,_ZN3ert13diametercodec5stack10Dictionary15extractCommandsERKN8nlohmann10basic_jsonISt3mapSt6vectorNSt7__cxx1112basic_stringIcSt11char_traitsIcESaIcEEEblmdSaNS3_14adl_serializerES6_IhSaIhEEEE
FNDA:25,_ZN3ert13diametercodec5stack10Dictionary4loadERKN8nlohmann10basic_jsonISt3mapSt6vectorNSt7__cxx1112basic_stringIcSt11char_traitsIcESaIcEEEblmdSaNS3_14adl_serializerES6_IhSaIhEEEE
FNDA:25,_ZN3ert13diametercodec5stack10Dictionary10initializeEv
FNF:18
FNH:14
DA:54,25
DA:55,25
DA:56,25
DA:57,25
DA:58,25
DA:59,25
DA:60,25
DA:61,25
DA:65,25
DA:66,25
DA:67,25
DA:68,25
DA:69,25
DA:70,25
DA:71,25
DA:72,25
DA:73,25
DA:75,25
DA:76,25
DA:77,25
DA:78,25
DA:79,25
DA:80,25
DA:81,25
DA:82,25
DA:85,25
DA:86,25
DA:87,25
DA:88,25
DA:89,25
DA:90,25
DA:91,25
DA:92,25
DA:93,25
DA:94,25
DA:95,25
DA:96,25
DA:97,25
DA:98,25
DA:99,25
DA:100,25
DA:101,25
DA:103,25
DA:104,25
DA:105,25
DA:106,25
DA:107,25
DA:108,25
DA:109,25
DA:110,25
DA:113,25
DA:114,25
DA:115,25
DA:118,25
DA:119,25
DA:120,25
DA:121,25
DA:122,25
DA:123,25
DA:124,25
DA:125,25
DA:126,25
DA:128,425
DA:129,425
DA:130,0
DA:131,0
DA:132,0
DA:134,425
DA:135,425
DA:137,0
DA:145,425
DA:146,425
DA:148,150
DA:150,150
DA:151,150
DA:152,150
DA:154,2700
DA:156,2700
DA:157,2700
DA:158,2700
DA:160,350
DA:162,350
DA:163,350
DA:164,350
DA:166,72159
DA:167,72159
DA:169,72159
DA:171,425
DA:174,150
DA:175,150
DA:177,150
DA:179,0
DA:182,0
DA:183,0
DA:185,0
DA:187,0
DA:190,2705
DA:191,2705
DA:193,2705
DA:195,0
DA:198,5726
DA:199,5726
DA:201,5726
DA:203,0
DA:206,350
DA:207,350
DA:209,350
DA:211,0
DA:214,0
DA:215,0
DA:217,0
DA:219,0
DA:222,0
DA:223,0
DA:225,0
DA:228,0
DA:229,0
DA:230,0
DA:231,0
DA:232,0
DA:235,0
DA:236,0
DA:239,0
DA:240,0
DA:242,0
DA:243,0
DA:246,0
DA:247,0
DA:249,0
DA:250,0
DA:252,0
DA:253,0
DA:254,0
DA:257,0
DA:258,0
DA:261,0
DA:262,0
DA:265,0
DA:266,0
DA:267,0
DA:269,25
DA:270,325
DA:271,150
DA:274,150
DA:275,150
DA:278,150
DA:279,150
DA:282,150
DA:283,150
DA:284,25
DA:286,25
DA:287,2700
DA:288,2675
DA:291,2675
DA:292,2675
DA:293,2675
DA:294,2675
DA:295,2675
DA:296,2675
DA:299,2675
DA:300,2675
DA:303,2675
DA:304,0
DA:305,0
DA:307,0
DA:308,0
DA:309,0
DA:310,0
DA:312,0
DA:313,0
DA:314,0
DA:317,2675
DA:318,2675
DA:319,2675
DA:320,2675
DA:321,2675
DA:324,2675
DA:325,0
DA:326,0
DA:327,0
DA:329,2675
DA:330,0
DA:331,0
DA:332,0
DA:334,2675
DA:335,2225
DA:336,2225
DA:337,2225
DA:338,2225
DA:341,2225
DA:343,2225
DA:344,0
DA:345,0
DA:346,0
DA:348,2225
DA:350,2225
DA:352,575
DA:354,575
DA:355,0
DA:356,0
DA:357,0
DA:359,575
DA:360,575
DA:362,2225
DA:363,4250
DA:364,3550
DA:365,3550
DA:367,3550
DA:368,3550
DA:370,2225
DA:372,900
DA:377,2675
DA:378,2675
DA:381,2700
DA:382,2675
DA:383,2675
DA:385,2675
DA:386,2675
DA:388,2675
DA:390,2675
DA:393,2675
DA:394,450
DA:395,450
DA:396,2100
DA:397,1650
DA:398,1650
DA:399,1650
DA:401,1650
DA:402,1650
DA:403,0
DA:404,0
DA:405,0
DA:407,1650
DA:408,1650
DA:409,1650
DA:410,1650
DA:411,1650
DA:412,450
DA:413,2675
DA:445,2725
DA:446,2700
DA:448,2700
DA:450,49050
DA:451,48600
DA:453,48600
DA:455,8100
DA:456,300
DA:457,0
DA:460,0
DA:461,0
DA:463,0
DA:465,0
DA:466,0
DA:470,25
DA:472,25
DA:473,725
DA:474,350
DA:477,350
DA:478,350
DA:479,350
DA:482,350
DA:483,350
DA:484,350
DA:487,350
DA:488,350
DA:489,350
DA:490,350
DA:491,350
DA:493,350
DA:494,8500
DA:495,4075
DA:496,4075
DA:497,4075
DA:499,4075
DA:500,4075
DA:501,0
DA:502,0
DA:503,0
DA:505,4075
DA:506,4075
DA:507,4075
DA:508,4075
DA:509,4075
DA:512,350
DA:513,350
DA:514,25
DA:516,25
DA:519,25
DA:520,25
DA:523,25
DA:524,25
DA:525,0
DA:528,25
DA:529,25
DA:530,25
DA:533,25
DA:534,25
DA:535,25
DA:538,25
DA:539,25
DA:540,25
DA:542,25
LF:302
LH:224
end_of_record
TN:
SF:/code/src/stack/Format.cpp
FN:55,62,_ZNK3ert13diametercodec5stack6Format6asJsonB5cxx11Ev
FN:64,70,_ZNK3ert13diametercodec5stack6Format12getBasicTypeEv
FN:72,78,_ZN3ert13diametercodec5stack6Format13setParentNameERKNSt7__cxx1112basic_stringIcSt11char_traitsIcESaIcEEE
FNDA:0,_ZNK3ert13diametercodec5stack6Format6asJsonB5cxx11Ev
FNDA:0,_ZNK3ert13diametercodec5stack6Format12getBasicTypeEv
FNDA:200,_ZN3ert13diametercodec5stack6Format13setParentNameERKNSt7__cxx1112basic_stringIcSt11char_traitsIcESaIcEEE
FNF:3
FNH:1
DA:55,0
DA:56,0
DA:58,0
DA:59,0
DA:61,0
DA:62,0
DA:64,0
DA:65,0
DA:66,0
DA:67,0
DA:69,0
DA:72,200
DA:73,200
DA:74,200
DA:75,0
DA:77,200
DA:78,200
LF:17
LH:5
end_of_record
TN:
SF:/code/src/stack/Vendor.cpp
FN:52,59,_ZNK3ert13diametercodec5stack6Vendor6asJsonB5cxx11Ev
FNDA:1,_ZNK3ert13diametercodec5stack6Vendor6asJsonB5cxx11Ev
FNF:1
FNH:1
DA:52,1
DA:53,1
DA:55,1
DA:56,1
DA:58,1
DA:59,0
LF:6
LH:5
end_of_record
